; ModuleID = '3/2393.c'
source_filename = "3/2393.c"
target datalayout = "e-m:e-p270:32:32-p271:32:32-p272:64:64-i64:64-f80:128-n8:16:32:64-S128"
target triple = "x86_64-pc-linux-gnu"

@.str = private unnamed_addr constant [5 x i8] c"%d%d\00", align 1
@.str.1 = private unnamed_addr constant [3 x i8] c"%d\00", align 1
@.str.2 = private unnamed_addr constant [4 x i8] c"yes\00", align 1
@.str.3 = private unnamed_addr constant [3 x i8] c"no\00", align 1

; Function Attrs: noinline nounwind uwtable
define dso_local i32 @main() #0 {
  %1 = alloca i32, align 4
  %2 = alloca i32, align 4
  %3 = alloca i32, align 4
  %4 = alloca [1000 x i32], align 16
  %5 = alloca i32, align 4
  %6 = alloca i32, align 4
  store i32 0, i32* %1, align 4
  %7 = call i32 (i8*, ...) @__isoc99_scanf(i8* getelementptr inbounds ([5 x i8], [5 x i8]* @.str, i64 0, i64 0), i32* %2, i32* %3)
  store i32 0, i32* %5, align 4
  br label %8

8:                                                ; preds = %17, %0
  %9 = load i32, i32* %5, align 4
  %10 = load i32, i32* %2, align 4
  %11 = icmp slt i32 %9, %10
  br i1 %11, label %12, label %20

12:                                               ; preds = %8
  %13 = load i32, i32* %5, align 4
  %14 = sext i32 %13 to i64
  %15 = getelementptr inbounds [1000 x i32], [1000 x i32]* %4, i64 0, i64 %14
  %16 = call i32 (i8*, ...) @__isoc99_scanf(i8* getelementptr inbounds ([3 x i8], [3 x i8]* @.str.1, i64 0, i64 0), i32* %15)
  br label %17

17:                                               ; preds = %12
  %18 = load i32, i32* %5, align 4
  %19 = add nsw i32 %18, 1
  store i32 %19, i32* %5, align 4
  br label %8

20:                                               ; preds = %8
  store i32 0, i32* %5, align 4
  br label %21

21:                                               ; preds = %96, %20
  %22 = load i32, i32* %5, align 4
  %23 = load i32, i32* %2, align 4
  %24 = icmp slt i32 %22, %23
  br i1 %24, label %25, label %99

25:                                               ; preds = %21
  %26 = load i32, i32* %5, align 4
  %27 = add nsw i32 %26, 1
  store i32 %27, i32* %6, align 4
  br label %28

28:                                               ; preds = %47, %25
  %29 = load i32, i32* %6, align 4
  %30 = load i32, i32* %2, align 4
  %31 = icmp slt i32 %29, %30
  br i1 %31, label %32, label %50

32:                                               ; preds = %28
  %33 = load i32, i32* %5, align 4
  %34 = sext i32 %33 to i64
  %35 = getelementptr inbounds [1000 x i32], [1000 x i32]* %4, i64 0, i64 %34
  %36 = load i32, i32* %35, align 4
  %37 = load i32, i32* %6, align 4
  %38 = sext i32 %37 to i64
  %39 = getelementptr inbounds [1000 x i32], [1000 x i32]* %4, i64 0, i64 %38
  %40 = load i32, i32* %39, align 4
  %41 = add nsw i32 %36, %40
  %42 = load i32, i32* %3, align 4
  %43 = icmp eq i32 %41, %42
  br i1 %43, label %44, label %46

44:                                               ; preds = %32
  %45 = call i32 (i8*, ...) @printf(i8* getelementptr inbounds ([4 x i8], [4 x i8]* @.str.2, i64 0, i64 0))
  br label %50

46:                                               ; preds = %32
  br label %47

47:                                               ; preds = %46
  %48 = load i32, i32* %6, align 4
  %49 = add nsw i32 %48, 1
  store i32 %49, i32* %6, align 4
  br label %28

50:                                               ; preds = %44, %28
  %51 = load i32, i32* %6, align 4
  %52 = load i32, i32* %2, align 4
  %53 = icmp ne i32 %51, %52
  br i1 %53, label %54, label %55

54:                                               ; preds = %50
  br label %99

55:                                               ; preds = %50
  %56 = load i32, i32* %6, align 4
  %57 = load i32, i32* %2, align 4
  %58 = icmp eq i32 %56, %57
  br i1 %58, label %59, label %73

59:                                               ; preds = %55
  %60 = load i32, i32* %5, align 4
  %61 = sext i32 %60 to i64
  %62 = getelementptr inbounds [1000 x i32], [1000 x i32]* %4, i64 0, i64 %61
  %63 = load i32, i32* %62, align 4
  %64 = load i32, i32* %6, align 4
  %65 = sub nsw i32 %64, 1
  %66 = sext i32 %65 to i64
  %67 = getelementptr inbounds [1000 x i32], [1000 x i32]* %4, i64 0, i64 %66
  %68 = load i32, i32* %67, align 4
  %69 = add nsw i32 %63, %68
  %70 = load i32, i32* %3, align 4
  %71 = icmp eq i32 %69, %70
  br i1 %71, label %72, label %73

72:                                               ; preds = %59
  br label %99

73:                                               ; preds = %59, %55
  %74 = load i32, i32* %5, align 4
  %75 = load i32, i32* %2, align 4
  %76 = sub nsw i32 %75, 1
  %77 = icmp eq i32 %74, %76
  br i1 %77, label %78, label %93

78:                                               ; preds = %73
  %79 = load i32, i32* %5, align 4
  %80 = sext i32 %79 to i64
  %81 = getelementptr inbounds [1000 x i32], [1000 x i32]* %4, i64 0, i64 %80
  %82 = load i32, i32* %81, align 4
  %83 = load i32, i32* %6, align 4
  %84 = sub nsw i32 %83, 1
  %85 = sext i32 %84 to i64
  %86 = getelementptr inbounds [1000 x i32], [1000 x i32]* %4, i64 0, i64 %85
  %87 = load i32, i32* %86, align 4
  %88 = add nsw i32 %82, %87
  %89 = load i32, i32* %3, align 4
  %90 = icmp ne i32 %88, %89
  br i1 %90, label %91, label %93

91:                                               ; preds = %78
  %92 = call i32 (i8*, ...) @printf(i8* getelementptr inbounds ([3 x i8], [3 x i8]* @.str.3, i64 0, i64 0))
  br label %93

93:                                               ; preds = %91, %78, %73
  br label %94

94:                                               ; preds = %93
  br label %95

95:                                               ; preds = %94
  br label %96

96:                                               ; preds = %95
  %97 = load i32, i32* %5, align 4
  %98 = add nsw i32 %97, 1
  store i32 %98, i32* %5, align 4
  br label %21

99:                                               ; preds = %72, %54, %21
  ret i32 0
}

declare dso_local i32 @__isoc99_scanf(i8*, ...) #1

declare dso_local i32 @printf(i8*, ...) #1


!llvm.module.flags = !{!0}
!llvm.ident = !{!1}

!0 = !{i32 1, !"wchar_size", i32 4}
!1 = !{!"clang version 10.0.0-4ubuntu1 "}
